target datalayout = "e-m:e-p270:32:32-p271:32:32-p272:64:64-i64:64-i128:128-f80:128-n8:16:32:64-S128"
target triple = "x86_64-pc-linux-gnu"

%struct.AVFormatContext = type { ptr, ptr, ptr, ptr, ptr, i32, i32, ptr, i32, ptr, i32, ptr, ptr, i64, i64, i64, i32, i32, i32, i64, i64, ptr, i32, i32, ptr, i32, i32, i32, i32, ptr, i64, i32, i32, %struct.AVIOInterruptCB, i32, i32, i32, i32, i64, i32, i32, i32, i32, i32, i32, i32, i32, i32, i32, i32, i32, i64, i32, i32, i32, i32, i32, ptr, ptr, ptr, ptr, i32, ptr, ptr, ptr, ptr, i32, ptr, ptr, i64, ptr, ptr, ptr, i64 }
%struct.AVIOInterruptCB = type { ptr, ptr }

@.str = private unnamed_addr constant [30 x i8] c"Assertion %s failed at %s:%d\0A\00", align 1
@.str.2 = private unnamed_addr constant [23 x i8] c"libavformat/avformat.c\00", align 1
@ff_copy_whiteblacklists.offsets = internal constant [4 x i32] [i32 336, i32 344, i32 352, i32 360], align 16
@.str.19 = private unnamed_addr constant [104 x i8] c"!dst->codec_whitelist && !dst->format_whitelist && !dst->protocol_whitelist && !dst->protocol_blacklist\00", align 1
@.str.20 = private unnamed_addr constant [37 x i8] c"Failed to duplicate black/whitelist\0A\00", align 1

; Function Attrs: nounwind uwtable
define i32 @ff_copy_whiteblacklists(ptr noundef %0, ptr noundef %1) #0 {
  %3 = alloca i32, align 4
  %4 = alloca ptr, align 8
  %5 = alloca ptr, align 8
  %6 = alloca i32, align 4
  %7 = alloca i32, align 4
  %8 = alloca ptr, align 8
  %9 = alloca ptr, align 8
  store ptr %0, ptr %4, align 8, !tbaa !47
  store ptr %1, ptr %5, align 8, !tbaa !47
  br label %10

10:                                               ; preds = %2
  %11 = load ptr, ptr %4, align 8, !tbaa !47
  %12 = getelementptr inbounds nuw %struct.AVFormatContext, ptr %11, i32 0, i32 57
  %13 = load ptr, ptr %12, align 8, !tbaa !173
  %14 = icmp ne ptr %13, null
  br i1 %14, label %30, label %15

15:                                               ; preds = %10
  %16 = load ptr, ptr %4, align 8, !tbaa !47
  %17 = getelementptr inbounds nuw %struct.AVFormatContext, ptr %16, i32 0, i32 58
  %18 = load ptr, ptr %17, align 8, !tbaa !174
  %19 = icmp ne ptr %18, null
  br i1 %19, label %30, label %20

20:                                               ; preds = %15
  %21 = load ptr, ptr %4, align 8, !tbaa !47
  %22 = getelementptr inbounds nuw %struct.AVFormatContext, ptr %21, i32 0, i32 59
  %23 = load ptr, ptr %22, align 8, !tbaa !175
  %24 = icmp ne ptr %23, null
  br i1 %24, label %30, label %25

25:                                               ; preds = %20
  %26 = load ptr, ptr %4, align 8, !tbaa !47
  %27 = getelementptr inbounds nuw %struct.AVFormatContext, ptr %26, i32 0, i32 60
  %28 = load ptr, ptr %27, align 8, !tbaa !176
  %29 = icmp ne ptr %28, null
  br i1 %29, label %30, label %31

30:                                               ; preds = %25, %20, %15, %10
  call void (ptr, i32, ptr, ...) @av_log(ptr noundef null, i32 noundef 0, ptr noundef @.str, ptr noundef @.str.19, ptr noundef @.str.2, i32 noundef 833)
  call void @abort() #12
  unreachable

31:                                               ; preds = %25
  br label %32

32:                                               ; preds = %31
  call void @llvm.lifetime.start.p0(i64 4, ptr %6) #11
  store i32 0, ptr %6, align 4, !tbaa !74
  br label %33

33:                                               ; preds = %72, %32
  %34 = load i32, ptr %6, align 4, !tbaa !74
  %35 = zext i32 %34 to i64
  %36 = icmp ult i64 %35, 4
  br i1 %36, label %38, label %37

37:                                               ; preds = %33
  store i32 4, ptr %7, align 4
  br label %75

38:                                               ; preds = %33
  call void @llvm.lifetime.start.p0(i64 8, ptr %8) #11
  %39 = load ptr, ptr %5, align 8, !tbaa !47
  %40 = load i32, ptr %6, align 4, !tbaa !74
  %41 = zext i32 %40 to i64
  %42 = getelementptr inbounds nuw [4 x i32], ptr @ff_copy_whiteblacklists.offsets, i64 0, i64 %41
  %43 = load i32, ptr %42, align 4, !tbaa !74
  %44 = zext i32 %43 to i64
  %45 = getelementptr inbounds nuw i8, ptr %39, i64 %44
  %46 = load ptr, ptr %45, align 8, !tbaa !138
  store ptr %46, ptr %8, align 8, !tbaa !138
  %47 = load ptr, ptr %8, align 8, !tbaa !138
  %48 = icmp ne ptr %47, null
  br i1 %48, label %49, label %68

49:                                               ; preds = %38
  call void @llvm.lifetime.start.p0(i64 8, ptr %9) #11
  %50 = load ptr, ptr %8, align 8, !tbaa !138
  %51 = call noalias ptr @av_strdup(ptr noundef %50)
  store ptr %51, ptr %9, align 8, !tbaa !138
  %52 = load ptr, ptr %9, align 8, !tbaa !138
  %53 = icmp ne ptr %52, null
  br i1 %53, label %56, label %54

54:                                               ; preds = %49
  %55 = load ptr, ptr %4, align 8, !tbaa !47
  call void (ptr, i32, ptr, ...) @av_log(ptr noundef %55, i32 noundef 16, ptr noundef @.str.20)
  store i32 -12, ptr %3, align 4
  store i32 1, ptr %7, align 4
  br label %65

56:                                               ; preds = %49
  %57 = load ptr, ptr %9, align 8, !tbaa !138
  %58 = load ptr, ptr %4, align 8, !tbaa !47
  %59 = load i32, ptr %6, align 4, !tbaa !74
  %60 = zext i32 %59 to i64
  %61 = getelementptr inbounds nuw [4 x i32], ptr @ff_copy_whiteblacklists.offsets, i64 0, i64 %60
  %62 = load i32, ptr %61, align 4, !tbaa !74
  %63 = zext i32 %62 to i64
  %64 = getelementptr inbounds nuw i8, ptr %58, i64 %63
  store ptr %57, ptr %64, align 8, !tbaa !138
  store i32 0, ptr %7, align 4
  br label %65

65:                                               ; preds = %56, %54
  call void @llvm.lifetime.end.p0(i64 8, ptr %9) #11
  %66 = load i32, ptr %7, align 4
  switch i32 %66, label %69 [
    i32 0, label %67
  ]

67:                                               ; preds = %65
  br label %68

68:                                               ; preds = %67, %38
  store i32 0, ptr %7, align 4
  br label %69

69:                                               ; preds = %68, %65
  call void @llvm.lifetime.end.p0(i64 8, ptr %8) #11
  %70 = load i32, ptr %7, align 4
  switch i32 %70, label %75 [
    i32 0, label %71
  ]

71:                                               ; preds = %69
  br label %72

72:                                               ; preds = %71
  %73 = load i32, ptr %6, align 4, !tbaa !74
  %74 = add i32 %73, 1
  store i32 %74, ptr %6, align 4, !tbaa !74
  br label %33, !llvm.loop !177

75:                                               ; preds = %69, %37
  call void @llvm.lifetime.end.p0(i64 4, ptr %6) #11
  %76 = load i32, ptr %7, align 4
  switch i32 %76, label %80 [
    i32 4, label %77
    i32 1, label %78
  ]

77:                                               ; preds = %75
  store i32 0, ptr %3, align 4
  br label %78

78:                                               ; preds = %77, %75
  %79 = load i32, ptr %3, align 4
  ret i32 %79

80:                                               ; preds = %75
  unreachable
}