; Function Attrs: nounwind uwtable
define range(i32 -12, 1) i32 @ff_copy_whiteblacklists(ptr noundef %0, ptr noundef readonly captures(none) %1) local_unnamed_addr #0 {
  %3 = getelementptr inbounds nuw i8, ptr %0, i64 336
  %4 = load ptr, ptr %3, align 8, !tbaa !147
  %.not = icmp eq ptr %4, null
  br i1 %.not, label %5, label %14

5:                                                ; preds = %2
  %6 = getelementptr inbounds nuw i8, ptr %0, i64 344
  %7 = load ptr, ptr %6, align 8, !tbaa !148
  %.not26 = icmp eq ptr %7, null
  br i1 %.not26, label %8, label %14

8:                                                ; preds = %5
  %9 = getelementptr inbounds nuw i8, ptr %0, i64 352
  %10 = load ptr, ptr %9, align 8, !tbaa !149
  %.not27 = icmp eq ptr %10, null
  br i1 %.not27, label %11, label %14

11:                                               ; preds = %8
  %12 = getelementptr inbounds nuw i8, ptr %0, i64 360
  %13 = load ptr, ptr %12, align 8, !tbaa !150
  %.not28 = icmp eq ptr %13, null
  br i1 %.not28, label %.preheader, label %14

14:                                               ; preds = %11, %8, %5, %2
  tail call void (ptr, i32, ptr, ...) @av_log(ptr noundef null, i32 noundef 0, ptr noundef nonnull @.str, ptr noundef nonnull @.str.19, ptr noundef nonnull @.str.2, i32 noundef 833) #13
  tail call void @abort() #14
  unreachable

.preheader:                                       ; preds = %11, %.critedge
  %indvars.iv = phi i64 [ %indvars.iv.next, %.critedge ], [ 0, %11 ]
  %15 = getelementptr inbounds nuw [4 x i32], ptr @ff_copy_whiteblacklists.offsets, i64 0, i64 %indvars.iv
  %16 = load i32, ptr %15, align 4, !tbaa !102
  %17 = zext i32 %16 to i64
  %18 = getelementptr inbounds nuw i8, ptr %1, i64 %17
  %19 = load ptr, ptr %18, align 8, !tbaa !121
  %.not29 = icmp eq ptr %19, null
  br i1 %.not29, label %.critedge, label %20

20:                                               ; preds = %.preheader
  %21 = tail call noalias ptr @av_strdup(ptr noundef nonnull %19) #13
  %.not30.not = icmp eq ptr %21, null
  br i1 %.not30.not, label %.thread, label %22

.thread:                                          ; preds = %20
  tail call void (ptr, i32, ptr, ...) @av_log(ptr noundef %0, i32 noundef 16, ptr noundef nonnull @.str.20) #13
  br label %.loopexit

22:                                               ; preds = %20
  %23 = getelementptr inbounds nuw i8, ptr %0, i64 %17
  store ptr %21, ptr %23, align 8, !tbaa !121
  br label %.critedge

.critedge:                                        ; preds = %22, %.preheader
  %indvars.iv.next = add nuw nsw i64 %indvars.iv, 1
  %exitcond = icmp eq i64 %indvars.iv.next, 4
  br i1 %exitcond, label %.loopexit, label %.preheader, !llvm.loop !151

.loopexit:                                        ; preds = %.critedge, %.thread
  %spec.select = phi i32 [ -12, %.thread ], [ 0, %.critedge ]
  ret i32 %spec.select
}